target datalayout = "e-m:e-p270:32:32-p271:32:32-p272:64:64-i64:64-i128:128-f80:128-n8:16:32:64-S128"
target triple = "x86_64-pc-linux-gnu"

%"class.std::__cxx11::basic_string" = type { %"struct.std::__cxx11::basic_string<char>::_Alloc_hider", i64, %union.anon }
%"struct.std::__cxx11::basic_string<char>::_Alloc_hider" = type { ptr }
%union.anon = type { i64, [8 x i8] }
%class.cmConfigureLog = type { %"class.std::__cxx11::basic_string", %"class.std::vector", %"class.std::basic_ofstream", i32, i8, %"class.std::unique_ptr" }
%"class.std::vector" = type { %"struct.std::_Vector_base" }
%"struct.std::_Vector_base" = type { %"struct.std::_Vector_base<unsigned long, std::allocator<unsigned long>>::_Vector_impl" }
%"struct.std::_Vector_base<unsigned long, std::allocator<unsigned long>>::_Vector_impl" = type { %"struct.std::_Vector_base<unsigned long, std::allocator<unsigned long>>::_Vector_impl_data" }
%"struct.std::_Vector_base<unsigned long, std::allocator<unsigned long>>::_Vector_impl_data" = type { ptr, ptr, ptr }
%"class.std::basic_ofstream" = type { %"class.std::basic_ostream.base", %"class.std::basic_filebuf", %"class.std::basic_ios" }
%"class.std::basic_ostream.base" = type { ptr }
%"class.std::basic_filebuf" = type { %"class.std::basic_streambuf", %union.pthread_mutex_t, %"class.std::__basic_file", i32, %struct.__mbstate_t, %struct.__mbstate_t, %struct.__mbstate_t, ptr, i64, i8, i8, i8, i8, ptr, ptr, i8, ptr, ptr, i64, ptr, ptr }
%"class.std::basic_streambuf" = type { ptr, ptr, ptr, ptr, ptr, ptr, ptr, %"class.std::locale" }
%"class.std::locale" = type { ptr }
%union.pthread_mutex_t = type { %struct.__pthread_mutex_s }
%struct.__pthread_mutex_s = type { i32, i32, i32, i32, i32, i16, i16, %struct.__pthread_internal_list }
%struct.__pthread_internal_list = type { ptr, ptr }
%"class.std::__basic_file" = type <{ ptr, i8, [7 x i8] }>
%struct.__mbstate_t = type { i32, %union.anon.3 }
%union.anon.3 = type { i32 }
%"class.std::basic_ios" = type { %"class.std::ios_base", ptr, i8, i8, ptr, ptr, ptr, ptr }
%"class.std::ios_base" = type { ptr, i64, i64, i32, i32, i32, ptr, %"struct.std::ios_base::_Words", [8 x %"struct.std::ios_base::_Words"], i32, ptr, %"class.std::locale" }
%"struct.std::ios_base::_Words" = type { ptr, i64 }
%"class.std::unique_ptr" = type { %"struct.std::__uniq_ptr_data" }
%"struct.std::__uniq_ptr_data" = type { %"class.std::__uniq_ptr_impl" }
%"class.std::__uniq_ptr_impl" = type { %"class.std::tuple" }
%"class.std::tuple" = type { %"struct.std::_Tuple_impl" }
%"struct.std::_Tuple_impl" = type { %"struct.std::_Head_base.5" }
%"struct.std::_Head_base.5" = type { ptr }

@.str.18 = private unnamed_addr constant [7 x i8] c"\\x%02x\00", align 1

; Function Attrs: mustprogress uwtable
define dso_local void @_ZN14cmConfigureLog11WriteEscapeEh(ptr noundef nonnull align 8 dereferenceable(584) %0, i8 noundef zeroext %1) #5 align 2 {
  %3 = alloca ptr, align 8
  %4 = alloca i8, align 1
  %5 = alloca [6 x i8], align 1
  %6 = alloca i32, align 4
  store ptr %0, ptr %3, align 8, !tbaa !20
  store i8 %1, ptr %4, align 1, !tbaa !55
  %7 = load ptr, ptr %3, align 8
  call void @llvm.lifetime.start.p0(i64 6, ptr %5) #3
  call void @llvm.lifetime.start.p0(i64 4, ptr %6) #3
  %8 = getelementptr inbounds [6 x i8], ptr %5, i64 0, i64 0
  %9 = load i8, ptr %4, align 1, !tbaa !55
  %10 = zext i8 %9 to i32
  %11 = call i32 (ptr, i64, ptr, ...) @snprintf(ptr noundef %8, i64 noundef 6, ptr noundef @.str.18, i32 noundef %10) #3
  store i32 %11, ptr %6, align 4, !tbaa !112
  %12 = load i32, ptr %6, align 4, !tbaa !112
  %13 = icmp sgt i32 %12, 0
  br i1 %13, label %14, label %20

14:                                               ; preds = %2
  %15 = getelementptr inbounds nuw %class.cmConfigureLog, ptr %7, i32 0, i32 2
  %16 = getelementptr inbounds [6 x i8], ptr %5, i64 0, i64 0
  %17 = load i32, ptr %6, align 4, !tbaa !112
  %18 = sext i32 %17 to i64
  %19 = call noundef nonnull align 8 dereferenceable(8) ptr @_ZNSo5writeEPKcl(ptr noundef nonnull align 8 dereferenceable(8) %15, ptr noundef %16, i64 noundef %18)
  br label %20

20:                                               ; preds = %14, %2
  call void @llvm.lifetime.end.p0(i64 4, ptr %6) #3
  call void @llvm.lifetime.end.p0(i64 6, ptr %5) #3
  ret void
}