; Function Attrs: mustprogress uwtable
define dso_local void @_ZN14cmConfigureLog11WriteEscapeEh(ptr noundef nonnull align 8 dereferenceable(584) %0, i8 noundef zeroext %1) local_unnamed_addr #5 align 2 {
  %3 = alloca [6 x i8], align 1
  call void @llvm.lifetime.start.p0(i64 6, ptr nonnull %3) #27
  %4 = zext i8 %1 to i32
  %5 = call i32 (ptr, i64, ptr, ...) @snprintf(ptr noundef nonnull dereferenceable(1) %3, i64 noundef 6, ptr noundef nonnull @.str.18, i32 noundef %4) #27
  %6 = icmp sgt i32 %5, 0
  br i1 %6, label %7, label %11

7:                                                ; preds = %2
  %8 = getelementptr inbounds nuw i8, ptr %0, i64 56
  %9 = zext nneg i32 %5 to i64
  %10 = call noundef nonnull align 8 dereferenceable(8) ptr @_ZNSo5writeEPKcl(ptr noundef nonnull align 8 dereferenceable(8) %8, ptr noundef nonnull %3, i64 noundef %9)
  br label %11

11:                                               ; preds = %7, %2
  call void @llvm.lifetime.end.p0(i64 6, ptr nonnull %3) #27
  ret void
}